(dp0
S'METTS MARK'
p1
(dp2
S'to_messages'
p3
F0.05327084295993135
sS'deferral_payments'
p4
L0L
sS'expenses'
p5
F0.41221263928170204
sS'poi'
p6
I00
sS'deferred_income'
p7
L0L
sS'email_address'
p8
S'mark.metts@enron.com'
p9
sS'from_poi_to_this_person'
p10
F0.07196969696969698
sS'fraction_from_poi'
p11
F0.21665480239394658
sS'restricted_stock_deferred'
p12
L0L
sS'shared_receipt_with_poi'
p13
F0.12715087846404638
sS'loan_advances'
p14
L0L
sS'from_messages'
p15
F0.00201837416481069
sS'other'
p16
F0.00016795806145122134
sS'director_fees'
p17
L0L
sS'bonus'
p18
F0.075
sS'total_stock_value'
p19
F0.012799625895430116
sS'from_this_person_to_poi'
p20
F0.0016420361247947454
sS'long_term_incentive'
p21
L0L
sS'restricted_stock'
p22
F0.1836645287185717
sS'salary'
p23
F0.329165684296536
sS'total_payments'
p24
F0.010253274646850635
sS'fraction_to_poi'
p25
F0.034482758620689655
sS'exercised_stock_options'
p26
F0.0
ssS'BAXTER JOHN C'
p27
(dp28
g3
F0.0
sg4
L1295738L
sg5
F0.04895896626639798
sg6
I00
sg7
L-1386055L
sg8
S'NaN'
p29
sg10
F0.0
sg11
F0.0
sg12
L0L
sg13
F0.0
sg14
L0L
sg15
F0.0
sg16
F0.25679272112233825
sg17
L0L
sg18
F0.15
sg19
F0.21701822618471175
sg20
F0.0
sg21
L1586055L
sg22
F0.37700878903505797
sg23
F0.2403600244047737
sg24
F0.05440666533584129
sg25
F0.0
sg26
F0.1944936914644951
ssS'ELLIOTT STEVEN'
p30
(dp31
g3
F0.0
sg4
L0L
sg5
F0.34337720697840124
sg6
I00
sg7
L-400729L
sg8
S'steven.elliott@enron.com'
p32
sg10
F0.0
sg11
F0.0
sg12
L0L
sg13
F0.0
sg14
L0L
sg15
F0.0
sg16
F0.0012510945025685518
sg17
L0L
sg18
F0.04375
sg19
F0.13677024478756847
sg20
F0.0
sg21
L0L
sg22
F0.2529560322521056
sg23
F0.15382656412822224
sg24
F0.002044471062239377
sg25
F0.0
sg26
F0.14237479119832827
ssS'CORDES WILLIAM R'
p33
(dp34
g3
F0.050432371773714436
sg4
L0L
sg5
F0.0
sg6
I00
sg7
L0L
sg8
S'bill.cordes@enron.com'
p35
sg10
F0.01893939393939394
sg11
F0.06022334855742453
sg12
L0L
sg13
F0.01050534323492121
sg14
L0L
sg15
F0.0008351893095768373
sg16
F0.0
sg17
L0L
sg18
F0.0
sg19
F0.022018029761909728
sg20
F0.0
sg21
L0L
sg22
F0.1722211972417199
sg23
F0.0
sg24
F0.0
sg25
F0.0
sg26
F0.018977603138476615
ssS'HANNON KEVIN P'
p36
(dp37
g3
F0.06898145092085287
sg4
L0L
sg5
F0.1487959154233858
sg6
I01
sg7
L-3117011L
sg8
S'kevin.hannon@enron.com'
p38
sg10
F0.06060606060606061
sg11
F0.14089382062506364
sg12
L0L
sg13
F0.187466038761094
sg14
L0L
sg15
F0.0022271714922048997
sg16
F0.0010955885042938864
sg17
L0L
sg18
F0.1875
sg19
F0.13091784215016056
sg20
F0.034482758620689655
sg21
L1617011L
sg22
F0.19909693459426664
sg23
F0.2189347568251477
sg24
F0.002787587649967589
sg25
F0.65625
sg26
F0.1612303216360921
ssS'MORDAUNT KRISTINA M'
p39
(dp40
g3
F0.0
sg4
L0L
sg5
F0.15307545363542183
sg6
I00
sg7
L0L
sg8
S'kristina.mordaunt@enron.com'
p41
sg10
F0.0
sg11
F0.0
sg12
L0L
sg13
F0.0
sg14
L0L
sg15
F0.0
sg16
F0.0001362004739699272
sg17
L0L
sg18
F0.040625
sg19
F0.005138994206615752
sg20
F0.0
sg21
L0L
sg22
F0.16198146927384854
sg23
F0.24035192547545214
sg24
F0.006069170107360102
sg25
F0.0
sg26
F0.0
ssS'MEYER ROCKFORD G'
p42
(dp43
g3
F0.015314542214007526
sg4
L1848227L
sg5
F0.0
sg6
I00
sg7
L0L
sg8
S'rockford.meyer@enron.com'
p44
sg10
F0.0
sg11
F0.0
sg12
L0L
sg13
F0.003984785364970114
sg14
L0L
sg15
F0.0019487750556792872
sg16
F0.0
sg17
L0L
sg18
F0.0
sg19
F0.020343461798999724
sg20
F0.0
sg21
L0L
sg22
F0.17660034006319408
sg23
F0.0
sg24
F0.017846955333330958
sg25
F0.0
sg26
F0.014367167899369006
ssS'MCMAHON JEFFREY'
p45
(dp46
g3
F0.15545580566374018
sg4
L0L
sg5
F0.599345173826187
sg6
I00
sg7
L0L
sg8
S'jeffrey.mcmahon@enron.com'
p47
sg10
F0.10984848484848485
sg11
F0.11331707096715907
sg12
L0L
sg13
F0.40355008150697336
sg14
L0L
sg15
F0.0033407572383073493
sg16
F0.028702777842933923
sg17
L0L
sg18
F0.325
sg19
F0.03472641212889136
sg20
F0.04269293924466338
sg21
L694862L
sg22
F0.1821523369785786
sg23
F0.3333591299230242
sg24
F0.03958844336430838
sg25
F0.5416666666666666
sg26
F0.03214282220671575
ssS'HORTON STANLEY C'
p48
(dp49
g3
F0.1551257508746452
sg4
L3131860L
sg5
F0.0
sg6
I00
sg7
L0L
sg8
S'stanley.horton@enron.com'
p50
sg10
F0.08333333333333334
sg11
F0.08614757808963333
sg12
L0L
sg13
F0.19452997645354103
sg14
L0L
sg15
F0.07467984409799554
sg16
F0.0
sg17
L0L
sg18
F0.0
sg19
F0.1485273955693404
sg20
F0.02463054187192118
sg21
L0L
sg22
F0.26779452526818787
sg23
F0.0
sg24
F0.030242045771566962
sg25
F0.013979496738117428
sg26
F0.15169764609595607
ssS'PIPER GREGORY F'
p51
(dp52
g3
F0.08172156577991947
sg4
L1130036L
sg5
F0.18821662594038374
sg6
I00
sg7
L-33333L
sg8
S'greg.piper@enron.com'
p53
sg10
F0.11553030303030304
sg11
F0.22670831471487987
sg12
L-409554L
sg13
F0.13439594276399203
sg14
L0L
sg15
F0.015451002227171492
sg16
F7.509848954543116e-05
sg17
L0L
sg18
F0.049999999999999996
sg19
F0.01880578964499269
sg20
F0.07881773399014778
sg21
L0L
sg22
F0.17355822096552703
sg23
F0.1773584532124853
sg24
F0.016778992596093736
sg25
F0.21621621621621623
sg26
F0.025628279921407655
ssS'HUMPHREY GENE E'
p54
(dp55
g3
F0.008449402600831738
sg4
L2964506L
sg5
F0.021830453351284956
sg6
I00
sg7
L0L
sg8
S'gene.humphrey@enron.com'
p56
sg10
F0.01893939393939394
sg11
F0.3594581117021277
sg12
L0L
sg13
F0.021554066292338345
sg14
L0L
sg15
F0.001183184855233853
sg16
F0.0
sg17
L0L
sg18
F0.0
sg19
F0.04733801735767246
sg20
F0.027914614121510674
sg21
L0L
sg22
F0.1499748016029313
sg23
F0.1176360485143864
sg24
F0.029936560417806166
sg25
F1.0
sg26
F0.0664592546770177
ssS'UMANOFF ADAM S'
p57
(dp58
g3
F0.007327216317908773
sg4
L0L
sg5
F0.23221412553603513
sg6
I00
sg7
L0L
sg8
S'adam.umanoff@enron.com'
p59
sg10
F0.022727272727272728
sg11
F0.4974123059229443
sg12
L0L
sg13
F0.007426190907444304
sg14
L0L
sg15
F0.001252783964365256
sg16
F0.0
sg17
L0L
sg18
F0.09859375
sg19
F0.0008970347602851445
sg20
F0.0
sg21
L0L
sg22
F0.1499748016029313
sg23
F0.2596957682194414
sg24
F0.010916022205645004
sg25
F0.0
sg26
F0.0
ssS'BLACHMAN JEREMY M'
p60
(dp61
g3
F0.16337712060201995
sg4
L0L
sg5
F0.3681014849429322
sg6
I00
sg7
L0L
sg8
S'jeremy.blachman@enron.com'
p62
sg10
F0.04734848484848485
sg11
F0.046475392220073075
sg12
L0L
sg13
F0.42130048904184025
sg14
L0L
sg15
F0.0009743875278396436
sg16
F2.6255513054443797e-05
sg17
L0L
sg18
F0.10625
sg19
F0.02031255902983289
sg20
F0.003284072249589491
sg21
L831809L
sg22
F0.16086038245362366
sg23
F0.22366183190582203
sg24
F0.01945576503807805
sg25
F0.14285714285714285
sg26
F0.022280902647414214
ssS'SUNDE MARTIN'
p63
(dp64
g3
F0.1747310053468876
sg4
L0L
sg5
F0.0
sg6
I00
sg7
L0L
sg8
S'marty.sunde@enron.com'
p65
sg10
F0.07007575757575758
sg11
F0.06431407695584725
sg12
L0L
sg13
F0.46458974823401555
sg14
L0L
sg15
F0.0026447661469933183
sg16
F0.010726342358955528
sg17
L0L
sg18
F0.0875
sg19
F0.015115970524658021
sg20
F0.02134646962233169
sg21
L476451L
sg22
F0.19022083377672377
sg23
F0.2317067683652221
sg24
F0.014919487141114698
sg25
F0.34210526315789475
sg26
F0.0
ssS'GIBBS DANA R'
p66
(dp67
g3
F0.011155851871410655
sg4
L504610L
sg5
F0.0
sg6
I00
sg7
L0L
sg8
S'dana.gibbs@enron.com'
p68
sg10
F0.0
sg11
F0.0
sg12
L0L
sg13
F0.004165911972468755
sg14
L0L
sg15
F0.0008351893095768373
sg16
F0.0
sg17
L0L
sg18
F0.0
sg19
F0.04602596186598285
sg20
F0.0
sg21
L461912L
sg22
F0.1499748016029313
sg23
F0.0
sg24
F0.009332985051447524
sg25
F0.0
sg26
F0.06458164087137258
ssS'LOWRY CHARLES P'
p69
(dp70
g3
F0.0
sg4
L0L
sg5
F0.0
sg6
I00
sg7
L0L
sg8
g29
sg10
F0.0
sg11
F0.0
sg12
L-153686L
sg13
F0.0
sg14
L0L
sg15
F0.0
sg16
F0.0
sg17
L0L
sg18
F0.0
sg19
F0.008469230413834057
sg20
F0.0
sg21
L0L
sg22
F0.15882452932665
sg23
F0.0
sg24
F0.0
sg25
F0.0
sg26
F0.010836172088911081
ssS'COLWELL WESLEY'
p71
(dp72
g3
F0.11604726384579842
sg4
L27610L
sg5
F0.07218824722529431
sg6
I01
sg7
L-144062L
sg8
S'wes.colwell@enron.com'
p73
sg10
F0.4545454545454546
sg11
F0.6281315808583255
sg12
L0L
sg13
F0.20503531968846223
sg14
L0L
sg15
F0.0027839643652561247
sg16
F0.009820720213820265
sg17
L0L
sg18
F0.15
sg19
F0.015102177188584873
sg20
F0.0180623973727422
sg21
L0L
sg22
F0.1901817923845561
sg23
F0.2596534738107622
sg24
F0.014391145026719008
sg25
F0.275
sg26
F0.0
ssS'MULLER MARK S'
p74
(dp75
g3
F0.008977490263383722
sg4
L842924L
sg5
F0.0
sg6
I00
sg7
L-719000L
sg8
S's..muller@enron.com'
p76
sg10
F0.022727272727272728
sg11
F0.40597622027534425
sg12
L0L
sg13
F0.020648433254845135
sg14
L0L
sg15
F0.0011135857461024498
sg16
F9.141165758293484e-05
sg17
L0L
sg18
F0.13749999999999998
sg19
F0.029721607958763052
sg20
F0.0
sg21
L1725545L
sg22
F0.17073514826285383
sg23
F0.2264586621648618
sg24
F0.03092001159175743
sg25
F0.0
sg26
F0.030753120729056713
ssS'JACKSON CHARLENE R'
p77
(dp78
g3
F0.017030827117301472
sg4
L0L
sg5
F0.04450457460341052
sg6
I00
sg7
L0L
sg8
S'charlene.jackson@enron.com'
p79
sg10
F0.04734848484848485
sg11
F0.4458395183902359
sg12
L0L
sg13
F0.02119181307734106
sg14
L0L
sg15
F0.0038975501113585743
sg16
F0.0002350447584101862
sg17
L0L
sg18
F0.03125
sg19
F0.015661499000766386
sg20
F0.031198686371100164
sg21
L0L
sg22
F0.18110841161190047
sg23
F0.25966787190733387
sg24
F0.005322277923054558
sg25
F0.3392857142857143
sg26
F0.005387822611974991
ssS'WESTFAHL RICHARD K'
p80
(dp81
g3
F0.0
sg4
L0L
sg5
F0.22674121252125565
sg6
I00
sg7
L-10800L
sg8
S'dick.westfahl@enron.com'
p82
sg10
F0.0
sg11
F0.0
sg12
L0L
sg13
F0.0
sg14
L0L
sg15
F0.0
sg16
F0.038720124821797944
sg17
L0L
sg18
F0.0
sg19
F0.008728109767124341
sg20
F0.0
sg21
L256191L
sg22
F0.1721402928818444
sg23
F0.05736201674138679
sg24
F0.00735937160476943
sg25
F0.0
sg26
F0.0
ssS'WALTERS GARETH W'
p83
(dp84
g3
F0.0
sg4
L53625L
sg5
F0.14768559600984427
sg6
I00
sg7
L0L
sg8
g29
sg10
F0.0
sg11
F0.0
sg12
L0L
sg13
F0.0
sg14
L0L
sg15
F0.0
sg16
F0.0
sg17
L0L
sg18
F0.0
sg19
F0.02185820609201201
sg20
F0.0
sg21
L0L
sg22
F0.1499748016029313
sg23
F0.0
sg24
F0.0008440534445641466
sg25
F0.0
sg26
F0.02999643301996391
ssS'WALLS JR ROBERT H'
p85
(dp86
g3
F0.044293352696547626
sg4
L0L
sg5
F0.22265838444153996
sg6
I00
sg7
L0L
sg8
S'rob.walls@enron.com'
p87
sg10
F0.032196969696969696
sg11
F0.11656942638805214
sg12
L0L
sg13
F0.03894222061220793
sg14
L0L
sg15
F0.010161469933184855
sg16
F1.9305524304738086e-07
sg17
L0L
sg18
F0.10625
sg19
F0.12090713522561494
sg20
F0.0
sg21
L540751L
sg22
F0.23936997327680049
sg23
F0.3213394189288176
sg24
F0.01736948238202832
sg25
F0.0
sg26
F0.1265428964576616
ssS'KITCHEN LOUISE'
p88
(dp89
g3
F0.548221004686778
sg4
L0L
sg5
F0.025240095644837673
sg6
I00
sg7
L0L
sg8
S'louise.kitchen@enron.com'
p90
sg10
F0.4753787878787879
sg11
F0.13905683579489414
sg12
L0L
sg13
F0.6645535229125158
sg14
L0L
sg15
F0.12026726057906459
sg16
F0.009066356851612624
sg17
L0L
sg18
F0.38749999999999996
sg19
F0.012028195938855322
sg20
F0.3185550082101806
sg21
L0L
sg22
F0.17681437672202482
sg23
F0.2442655080998292
sg24
F0.03351823038116733
sg25
F0.11226851851851852
sg26
F0.002359412308887661
ssS'CHAN RONNIE'
p91
(dp92
g3
F0.0
sg4
L0L
sg5
F0.0
sg6
I00
sg7
L-98784L
sg8
g29
sg10
F0.0
sg11
F0.0
sg12
L-32460L
sg13
F0.0
sg14
L0L
sg15
F0.0
sg16
F0.0
sg17
L98784L
sg18
F0.0
sg19
F0.0008970347602851445
sg20
F0.0
sg21
L0L
sg22
F0.15184395144033946
sg23
F0.0
sg24
F0.0
sg25
F0.0
sg26
F0.0
ssS'BELFER ROBERT'
p93
(dp94
g3
F0.0
sg4
L-102500L
sg5
F0.0
sg6
I00
sg7
L0L
sg8
g29
sg10
F0.0
sg11
F0.0
sg12
L44093L
sg13
F0.0
sg14
L0L
sg15
F0.0
sg16
F0.0
sg17
L3285L
sg18
F0.0
sg19
F0.0
sg20
F0.0
sg21
L0L
sg22
F0.1499748016029313
sg23
F0.0
sg24
F0.0009897663661803573
sg25
F0.0
sg26
F9.56376870597464e-05
ssS'SHANKMAN JEFFREY A'
p95
(dp96
g3
F0.21262129513499242
sg4
L0L
sg5
F0.7823773949458611
sg6
I00
sg7
L0L
sg8
S'jeffrey.shankman@enron.com'
p97
sg10
F0.17803030303030304
sg11
F0.13427506985408258
sg12
L0L
sg13
F0.3133490309726499
sg14
L0L
sg15
F0.18659521158129175
sg16
F0.0001149643972347153
sg17
L0L
sg18
F0.25
sg19
F0.043050832858110864
sg20
F0.13628899835796388
sg21
L554422L
sg22
F0.1862600902996306
sg23
F0.2736628217749613
sg24
F0.029342488160438867
sg25
F0.030958597538232
sg26
F0.041978627000327
ssS'WODRASKA JOHN'
p98
(dp99
g3
F0.0
sg4
L0L
sg5
F0.0
sg6
I00
sg7
L0L
sg8
S'john.wodraska@enron.com'
p100
sg10
F0.0
sg11
F0.0
sg12
L0L
sg13
F0.0
sg14
L0L
sg15
F0.0
sg16
F0.018299996071325802
sg17
L0L
sg18
F0.0
sg19
F0.0008970347602851445
sg20
F0.0
sg21
L0L
sg22
F0.1499748016029313
sg23
F0.0
sg24
F0.0018306622146299577
sg25
F0.0
sg26
F0.0
ssS'BERGSIEKER RICHARD P'
p101
(dp102
g3
F0.025282196844676218
sg4
L0L
sg5
F0.258673824001259
sg6
I00
sg7
L-485813L
sg8
S'rick.bergsieker@enron.com'
p103
sg10
F0.007575757575757576
sg11
F0.04805288595078051
sg12
L0L
sg13
F0.042202499547183484
sg14
L0L
sg15
F0.004106347438752784
sg16
F0.0412477971190173
sg17
L0L
sg18
F0.03125
sg19
F0.014308897611150843
sg20
F0.0
sg21
L180250L
sg22
F0.1879364516695205
sg23
F0.16910744399590374
sg24
F0.005975774787421601
sg25
F0.0
sg26
F0.0
ssS'URQUHART JOHN A'
p104
(dp105
g3
F0.0
sg4
L0L
sg5
F0.999532267018705
sg6
I00
sg7
L-36666L
sg8
g29
sg10
F0.0
sg11
F0.0
sg12
L0L
sg13
F0.0
sg14
L0L
sg15
F0.0
sg16
F0.0
sg17
L36666L
sg18
F0.0
sg19
F0.0008970347602851445
sg20
F0.0
sg21
L0L
sg22
F0.1499748016029313
sg23
F0.0
sg24
F0.00220796115341791
sg25
F0.0
sg26
F0.0
ssS'BIBI PHILIPPE A'
p106
(dp107
g3
F0.10607960921512971
sg4
L0L
sg5
F0.1685543553808964
sg6
I00
sg7
L0L
sg8
S'philippe.bibi@enron.com'
p108
sg10
F0.043560606060606064
sg11
F0.06585218922533068
sg12
L0L
sg13
F0.2419851476181851
sg14
L0L
sg15
F0.0027839643652561247
sg16
F0.04109065015117673
sg17
L0L
sg18
F0.125
sg19
F0.038407910490444445
sg20
F0.013136288998357963
sg21
L369721L
sg22
F0.17174596330431602
sg23
F0.1922370862571968
sg24
F0.01977208471245206
sg25
F0.2
sg26
F0.04267257522217057
ssS'PIRO JIM'
p109
(dp110
g3
F0.0038286355535018814
sg4
L0L
sg5
F0.0
sg6
I00
sg7
L0L
sg8
S'jim.piro@enron.com'
p111
sg10
F0.0
sg11
F0.0
sg12
L0L
sg13
F0.0005433798224959246
sg14
L0L
sg15
F0.0011135857461024498
sg16
F0.0
sg17
L0L
sg18
F0.0
sg19
F0.0018593945974594915
sg20
F0.0016420361247947454
sg21
L0L
sg22
F0.15269871607947952
sg23
F0.0
sg24
F0.0
sg25
F0.0625
sg26
F0.0
ssS'RIEKER PAULA H'
p112
(dp113
g3
F0.08766255198362928
sg4
L214678L
sg5
F0.1454387291651185
sg6
I01
sg7
L-100000L
sg8
S'paula.rieker@enron.com'
p114
sg10
F0.06628787878787878
sg11
F0.12126297744168163
sg12
L0L
sg13
F0.22785727223329108
sg14
L0L
sg15
F0.005707126948775056
sg16
F0.00018822886197119635
sg17
L0L
sg18
F0.0875
sg19
F0.03993516643785937
sg20
F0.07881773399014778
sg21
L0L
sg22
F0.16630821140672009
sg23
F0.22425125398422327
sg24
F0.010613192322622738
sg25
F0.5853658536585366
sg26
F0.04760742164755116
ssS'WHALEY DAVID A'
p115
(dp116
g3
F0.0
sg4
L0L
sg5
F0.0
sg6
I00
sg7
L0L
sg8
g29
sg10
F0.0
sg11
F0.0
sg12
L0L
sg13
F0.0
sg14
L0L
sg15
F0.0
sg16
F0.0
sg17
L0L
sg18
F0.0
sg19
F0.002905368905519737
sg20
F0.0
sg21
L0L
sg22
F0.1499748016029313
sg23
F0.0
sg24
F0.0
sg25
F0.0
sg26
F0.002874021671587228
ssS'BECK SALLY W'
p117
(dp118
g3
F0.48287015644597003
sg4
L0L
sg5
F0.16249131196915587
sg6
I00
sg7
L0L
sg8
S'sally.beck@enron.com'
p119
sg10
F0.2727272727272727
sg11
F0.09057459897325519
sg12
L0L
sg13
F0.477993117188915
sg14
L0L
sg15
F0.3022689309576837
sg16
F5.463463378240878e-05
sg17
L0L
sg18
F0.0875
sg19
F0.00346094739345721
sg20
F0.6338259441707718
sg21
L0L
sg22
F0.15723183630900145
sg23
F0.2081694799947447
sg24
F0.009357569882357721
sg25
F0.08887865530739121
sg26
F0.0
ssS'HAUG DAVID L'
p120
(dp121
g3
F0.03782427883028583
sg4
L0L
sg5
F0.0020763847300481284
sg6
I00
sg7
L0L
sg8
S'david.haug@enron.com'
p122
sg10
F0.007575757575757576
sg11
F0.032119119230626415
sg12
L0L
sg13
F0.08531063213186017
sg14
L0L
sg15
F0.0013223830734966592
sg16
F0.0
sg17
L0L
sg18
F0.0
sg19
F0.04600610597216664
sg20
F0.011494252873563218
sg21
L0L
sg22
F0.277653916369883
sg23
F0.0
sg24
F4.5867221847382405e-06
sg25
F0.3684210526315789
sg26
F0.0
ssS'ECHOLS JOHN B'
p123
(dp124
g3
F0.0
sg4
L0L
sg5
F0.09411486997460254
sg6
I00
sg7
L0L
sg8
S'john.echols@enron.com'
p125
sg10
F0.0
sg11
F0.0
sg12
L0L
sg13
F0.0
sg14
L0L
sg15
F0.0
sg16
F0.005190772847436453
sg17
L0L
sg18
F0.024999999999999998
sg19
F0.02142308533694933
sg20
F0.0
sg21
L2234774L
sg22
F0.17344011787506108
sg23
F0.16399881935608113
sg24
F0.025997773093269894
sg25
F0.0
sg26
F0.017509935838611795
ssS'MENDELSOHN JOHN'
p126
(dp127
g3
F0.0
sg4
L0L
sg5
F0.000646957768520259
sg6
I00
sg7
L-103750L
sg8
g29
sg10
F0.0
sg11
F0.0
sg12
L0L
sg13
F0.0
sg14
L0L
sg15
F0.0
sg16
F0.0
sg17
L103750L
sg18
F0.0
sg19
F0.0008970347602851445
sg20
F0.0
sg21
L0L
sg22
F0.1499748016029313
sg23
F0.0
sg24
F1.4291260701921256e-06
sg25
F0.0
sg26
F0.0
ssS'HICKERSON GARY J'
p128
(dp129
g3
F0.0871344643210773
sg4
L0L
sg5
F0.43210221932742626
sg6
I00
sg7
L0L
sg8
S'gary.hickerson@enron.com'
p130
sg10
F0.07575757575757576
sg11
F0.13942617666021923
sg12
L0L
sg13
F0.1630139467487774
sg14
L0L
sg15
F0.0018791759465478842
sg16
F0.00018687747526986468
sg17
L0L
sg18
F0.2125
sg19
F0.009870759492617627
sg20
F0.0016420361247947454
sg21
L69223L
sg22
F0.17537450944893823
sg23
F0.19058400479456616
sg24
F0.020102357678524908
sg25
F0.037037037037037035
sg26
F0.0
ssS'CLINE KENNETH W'
p131
(dp132
g3
F0.0
sg4
L0L
sg5
F0.0
sg6
I00
sg7
L0L
sg8
g29
sg10
F0.0
sg11
F0.0
sg12
L-472568L
sg13
F0.0
sg14
L0L
sg15
F0.0
sg16
F0.0
sg17
L0L
sg18
F0.0
sg19
F0.004752618043339598
sg20
F0.0
sg21
L0L
sg22
F0.18809981513497726
sg23
F0.0
sg24
F0.0
sg25
F0.0
sg26
F0.0
ssS'LEWIS RICHARD'
p133
(dp134
g3
F0.06284243184368606
sg4
L0L
sg5
F0.0
sg6
I00
sg7
L0L
sg8
S'richard.lewis@enron.com'
p135
sg10
F0.01893939393939394
sg11
F0.048330502413731456
sg12
L0L
sg13
F0.1338525629414961
sg14
L0L
sg15
F0.001809576837416481
sg16
F0.0
sg17
L0L
sg18
F0.0
sg19
F0.01819926939669067
sg20
F0.0
sg21
L0L
sg22
F0.1499748016029313
sg23
F0.0
sg24
F0.0
sg25
F0.0
sg26
F0.024760320601982324
ssS'HAYES ROBERT E'
p136
(dp137
g3
F0.03326952274077497
sg4
L7961L
sg5
F0.0
sg6
I00
sg7
L0L
sg8
S'robert.hayes@enron.com'
p138
sg10
F0.030303030303030304
sg11
F0.14606551840594395
sg12
L0L
sg13
F0.009056330374932078
sg14
L0L
sg15
F0.0008351893095768373
sg16
F0.0
sg17
L0L
sg18
F0.0
sg19
F0.003977505794981264
sg20
F0.0
sg21
L0L
sg22
F0.15869393068736345
sg23
F0.0
sg24
F7.687346381621292e-05
sg25
F0.0
sg26
F0.0
ssS'KOPPER MICHAEL J'
p139
(dp140
g3
F0.0
sg4
L0L
sg5
F0.5164034393673802
sg6
I01
sg7
L0L
sg8
S'michael.kopper@enron.com'
p141
sg10
F0.0
sg11
F0.0
sg12
L0L
sg13
F0.0
sg14
L0L
sg15
F0.0
sg16
F0.08759900958799212
sg17
L0L
sg18
F0.09999999999999999
sg19
F0.0209366769709126
sg20
F0.0
sg21
L602671L
sg22
F0.2066960709387854
sg23
F0.20184781571876198
sg24
F0.025614303806111315
sg25
F0.0
sg26
F0.0
ssS'LEFF DANIEL P'
p142
(dp143
g3
F0.18628292296521223
sg4
L0L
sg5
F0.0
sg6
I00
sg7
L0L
sg8
S'dan.leff@enron.com'
p144
sg10
F0.1268939393939394
sg11
F0.10923858135922918
sg12
L0L
sg13
F0.4839702952363702
sg14
L0L
sg15
F0.004384743875278397
sg16
F0.0002975946571575376
sg17
L0L
sg18
F0.125
sg19
F0.008231671733412004
sg20
F0.022988505747126436
sg21
L1387399L
sg22
F0.17073514826285383
sg23
F0.24633883400614437
sg24
F0.025726470890106934
sg25
F0.2222222222222222
sg26
F0.0
ssS'LAVORATO JOHN J'
p145
(dp146
g3
F0.47917354280810615
sg4
L0L
sg5
F0.216542884994514
sg6
I00
sg7
L0L
sg8
S'john.lavorato@enron.com'
p147
sg10
F1.0
sg11
F0.33466892163213385
sg12
L0L
sg13
F0.7176236189096178
sg14
L0L
sg15
F0.17991369710467706
sg16
F0.00014981086860476754
sg17
L0L
sg18
F1.0
sg19
F0.10601820545401935
sg20
F0.6748768472906403
sg21
L2035380L
sg22
F0.2080272211788151
sg23
F0.30531883684976846
sg24
F0.10067379142018949
sg25
F0.15899419729206962
sg26
F0.12108269780610348
ssS'BERBERIAN DAVID'
p148
(dp149
g3
F0.0
sg4
L0L
sg5
F0.05198393096785757
sg6
I00
sg7
L0L
sg8
S'david.berberian@enron.com'
p150
sg10
F0.0
sg11
F0.0
sg12
L0L
sg13
F0.0
sg14
L0L
sg15
F0.0
sg16
F0.0
sg17
L0L
sg18
F0.0
sg19
F0.05162754143488658
sg20
F0.0
sg21
L0L
sg22
F0.20002724835807337
sg23
F0.19489803447984175
sg24
F0.002206203714601863
sg25
F0.0
sg26
F0.04729177361007726
ssS'DETMERING TIMOTHY J'
p151
(dp152
g3
F0.0
sg4
L875307L
sg5
F0.22842417698666306
sg6
I00
sg7
L-775241L
sg8
S'timothy.detmering@enron.com'
p153
sg10
F0.0
sg11
F0.0
sg12
L-315068L
sg13
F0.0
sg14
L0L
sg15
F0.0
sg16
F0.00010666302178367792
sg17
L0L
sg18
F0.053125
sg19
F0.0421522315980062
sg20
F0.0
sg21
L415657L
sg22
F0.1681174171596938
sg23
F0.18942495802054968
sg24
F0.01163176330412325
sg25
F0.0
sg26
F0.05903814863604646
ssS'WAKEHAM JOHN'
p154
(dp155
g3
F0.0
sg4
L0L
sg5
F0.4536266791395462
sg6
I00
sg7
L0L
sg8
g29
sg10
F0.0
sg11
F0.0
sg12
L0L
sg13
F0.0
sg14
L0L
sg15
F0.0
sg16
F0.0
sg17
L109298L
sg18
F0.0
sg19
F0.0008970347602851445
sg20
F0.0
sg21
L0L
sg22
F0.1499748016029313
sg23
F0.0
sg24
F0.0020574683844723405
sg25
F0.0
sg26
F0.0
ssS'POWERS WILLIAM'
p156
(dp157
g3
F0.04310515545580566
sg4
L0L
sg5
F0.0
sg6
I00
sg7
L-17500L
sg8
S'ken.powers@enron.com'
p158
sg10
F0.0
sg11
F0.0
sg12
L0L
sg13
F0.0021735192899836986
sg14
L0L
sg15
F0.001809576837416481
sg16
F0.0
sg17
L17500L
sg18
F0.0
sg19
F0.0008970347602851445
sg20
F0.0
sg21
L0L
sg22
F0.1499748016029313
sg23
F0.0
sg24
F0.0
sg25
F0.0
sg26
F0.0
ssS'GOLD JOSEPH'
p159
(dp160
g3
F0.0
sg4
L0L
sg5
F0.0
sg6
I00
sg7
L0L
sg8
S'joe.gold@enron.com'
p161
sg10
F0.0
sg11
F0.0
sg12
L0L
sg13
F0.0
sg14
L0L
sg15
F0.0
sg16
F0.07908392198290129
sg17
L0L
sg18
F0.09375
sg19
F0.018751287657765604
sg20
F0.0
sg21
L304805L
sg22
F0.17537450944893823
sg23
F0.24555953702920474
sg24
F0.02073172355607161
sg25
F0.0
sg26
F0.01270845813299397
ssS'BANNANTINE JAMES M'
p162
(dp163
g3
F0.03736220212555284
sg4
L0L
sg5
F0.24611060355039935
sg6
I00
sg7
L-5104L
sg8
S'james.bannantine@enron.com'
p164
sg10
F0.07386363636363637
sg11
F0.31703443350124055
sg12
L-560222L
sg13
F0.08422387248686831
sg14
L0L
sg15
F0.00201837416481069
sg16
F0.08345034894252543
sg17
L0L
sg18
F0.0
sg19
F0.10757133916468656
sg20
F0.0
sg21
L0L
sg22
F0.2511802247402193
sg23
F0.0004292432540418157
sg24
F0.008847033906296046
sg25
F0.0
sg26
F0.11779759420414072
ssS'DUNCAN JOHN H'
p165
(dp166
g3
F0.0
sg4
L0L
sg5
F0.0
sg6
I00
sg7
L-25000L
sg8
g29
sg10
F0.0
sg11
F0.0
sg12
L0L
sg13
F0.0
sg14
L0L
sg15
F0.0
sg16
F0.0
sg17
L102492L
sg18
F0.0
sg19
F0.008459973823991458
sg20
F0.0
sg21
L0L
sg22
F0.1499748016029313
sg23
F0.0
sg24
F0.0007482826853468121
sg25
F0.0
sg26
F0.0108229254686334
ssS'SHAPIRO RICHARD S'
p167
(dp168
g3
F1.0
sg4
L0L
sg5
F0.6022258844306116
sg6
I00
sg7
L0L
sg8
S'richard.shapiro@enron.com'
p169
sg10
F0.14015151515151517
sg11
F0.02247532664890457
sg12
L0L
sg13
F0.8199601521463503
sg14
L0L
sg15
F0.08456291759465479
sg16
F6.805197317420175e-05
sg17
L0L
sg18
F0.08125
sg19
F0.020976734609154533
sg20
F0.10673234811165845
sg21
L0L
sg22
F0.17180826829889628
sg23
F0.24213638956929892
sg24
F0.010211955522159068
sg25
F0.053497942386831275
sg26
F0.017696232812582972
ssS'SHERRIFF JOHN R'
p170
(dp171
g3
F0.2103769225691465
sg4
L0L
sg5
F0.0
sg6
I00
sg7
L0L
sg8
S'john.sherriff@enron.com'
p172
sg10
F0.05303030303030303
sg11
F0.04042352909759729
sg12
L0L
sg13
F0.38090925556964317
sg14
L0L
sg15
F0.006403118040089087
sg16
F0.1787871091994781
sg17
L0L
sg18
F0.1875
sg19
F0.06455352486770655
sg20
F0.03776683087027914
sg21
L554422L
sg22
F0.22445426122399717
sg23
F0.385850990499056
sg24
F0.04186362172431148
sg25
F0.25
sg26
F0.05343942818387031
ssS'SHELBY REX'
p173
(dp174
g3
F0.01485246550927454
sg4
L0L
sg5
F0.10003365928930816
sg6
I01
sg7
L-4167L
sg8
S'rex.shelby@enron.com'
p175
sg10
F0.02462121212121212
sg11
F0.265839243498818
sg12
L0L
sg13
F0.01648252128237638
sg14
L0L
sg15
F0.0027143652561247215
sg16
F0.15186922360613872
sg17
L0L
sg18
F0.024999999999999998
sg19
F0.05162754143488658
sg20
F0.022988505747126436
sg21
L0L
sg22
F0.20002724835807337
sg23
F0.19063439813256686
sg24
F0.019350029021398294
sg25
F0.358974358974359
sg26
F0.04729177361007726
ssS'LEMAISTRE CHARLES'
p176
(dp177
g3
F0.0
sg4
L0L
sg5
F0.0
sg6
I00
sg7
L-25000L
sg8
g29
sg10
F0.0
sg11
F0.0
sg12
L0L
sg13
F0.0
sg14
L0L
sg15
F0.0
sg16
F0.0
sg17
L112492L
sg18
F0.0
sg19
F0.009296688169148455
sg20
F0.0
sg21
L0L
sg22
F0.1499748016029313
sg23
F0.0
sg24
F0.0008448452576570909
sg25
F0.0
sg26
F0.012020303487931193
ssS'DEFFNER JOSEPH M'
p178
(dp179
g3
F0.04713182388276454
sg4
L0L
sg5
F0.18196124373259664
sg6
I00
sg7
L0L
sg8
S'joseph.deffner@enron.com'
p180
sg10
F0.2178030303030303
sg11
F0.7410677036772156
sg12
L0L
sg13
F0.09998188733925013
sg14
L0L
sg15
F0.00515033407572383
sg16
F0.0024665703127948616
sg17
L0L
sg18
F0.075
sg19
F0.004136047783208469
sg20
F0.006568144499178982
sg21
L335349L
sg22
F0.15814199596180714
sg23
F0.1854843789651008
sg24
F0.01167102564602461
sg25
F0.05405405405405406
sg26
F0.0005059335542539643
ssS'KISHKILL JOSEPH G'
p181
(dp182
g3
F0.0
sg4
L0L
sg5
F0.5085394054108401
sg6
I00
sg7
L-51042L
sg8
S'joe.kishkill@enron.com'
p183
sg10
F0.0
sg11
F0.0
sg12
L0L
sg13
F0.0
sg14
L0L
sg15
F0.0
sg16
F0.04491980436940001
sg17
L0L
sg18
F0.0
sg19
F0.021939928556622388
sg20
F0.0
sg21
L0L
sg22
F0.2095357275956537
sg23
F0.15680067095130024
sg24
F0.006806657097122626
sg25
F0.0
sg26
F0.0
ssS'WHALLEY LAWRENCE G'
p184
(dp185
g3
F0.3973199551125487
sg4
L0L
sg5
F0.2528293474032077
sg6
I00
sg7
L0L
sg8
S'greg.whalley@enron.com'
p186
sg10
F0.3522727272727273
sg11
F0.14218273340096788
sg12
L0L
sg13
F0.7100163013946749
sg14
L0L
sg15
F0.03869710467706013
sg16
F0.029057323796790435
sg17
L0L
sg18
F0.375
sg19
F0.12457193103714434
sg20
F0.03940886699507389
sg21
L808346L
sg22
F0.3109875491357226
sg23
F0.45926688491781387
sg24
F0.04516785776116798
sg25
F0.04316546762589928
sg26
F0.09557829561938053
ssS'MCCARTY DANNY J'
p187
(dp188
g3
F0.09459370255462407
sg4
L0L
sg5
F0.0
sg6
I00
sg7
L0L
sg8
S'danny.mccarty@enron.com'
p189
sg10
F0.04734848484848485
sg11
F0.08026978070110319
sg12
L0L
sg13
F0.0920123166093099
sg14
L0L
sg15
F0.01496380846325167
sg16
F0.0
sg17
L0L
sg18
F0.0
sg19
F0.016336843520359644
sg20
F0.003284072249589491
sg21
L0L
sg22
F0.15541963623096472
sg23
F0.0
sg24
F0.0
sg25
F0.009302325581395349
sg26
F0.01934224911425236
ssS'MCCONNELL MICHAEL S'
p190
(dp191
g3
F0.2197504785794442
sg4
L0L
sg5
F0.3556694045802862
sg6
I00
sg7
L0L
sg8
S'mike.mcconnell@enron.com'
p192
sg10
F0.17424242424242425
sg11
F0.1271546627637205
sg12
L0L
sg13
F0.39648614381452635
sg14
L0L
sg15
F0.19084075723830735
sg16
F5.2124915622792834e-05
sg17
L0L
sg18
F0.13749999999999998
sg19
F0.06398993078328999
sg20
F0.3185550082101806
sg21
L554422L
sg22
F0.23509822307537454
sg23
F0.3284907735197407
sg24
F0.02029131132002166
sg25
F0.07075127644055434
sg26
F0.04725142236676986
ssS'DELAINEY DAVID W'
p193
(dp194
g3
F0.20417189253416068
sg4
L0L
sg5
F0.3766955320571946
sg6
I01
sg7
L0L
sg8
S'david.delainey@enron.com'
p195
sg10
F0.125
sg11
F0.09817982953959181
sg12
L0L
sg13
F0.37982249592465134
sg14
L0L
sg15
F0.21359966592427615
sg16
F0.00016033237935084981
sg17
L0L
sg18
F0.375
sg19
F0.07442611533413919
sg20
F1.0
sg21
L1294981L
sg22
F0.22616586349655168
sg23
F0.3286032586492066
sg24
F0.0458477065515185
sg25
F0.198435972629521
sg26
F0.06670220642694573
ssS'SULLIVAN-SHAKLOVITZ COLLEEN'
p196
(dp197
g3
F0.0
sg4
L181993L
sg5
F0.0
sg6
I00
sg7
L0L
sg8
g29
sg10
F0.0
sg11
F0.0
sg12
L0L
sg13
F0.0
sg14
L0L
sg15
F0.0
sg16
F1.563747468683785e-05
sg17
L0L
sg18
F0.012499999999999999
sg19
F0.028613400885145638
sg20
F0.0
sg21
L554422L
sg22
F0.1499748016029313
sg23
F0.14648173511461784
sg24
F0.009650038601371093
sg25
F0.0
sg26
F0.03966343802375098
ssS'WROBEL BRUCE'
p198
(dp199
g3
F0.0
sg4
L0L
sg5
F0.0
sg6
I00
sg7
L0L
sg8
g29
sg10
F0.0
sg11
F0.0
sg12
L0L
sg13
F0.0
sg14
L0L
sg15
F0.0
sg16
F0.0
sg17
L0L
sg18
F0.0
sg19
F0.0037275168367705766
sg20
F0.0
sg21
L0L
sg22
F0.1499748016029313
sg23
F0.0
sg24
F0.0
sg25
F0.0
sg26
F0.004050554459854647
ssS'LINDHOLM TOD A'
p200
(dp201
g3
F0.0
sg4
L204075L
sg5
F0.2523441290768175
sg6
I00
sg7
L0L
sg8
S'tod.lindholm@enron.com'
p202
sg10
F0.0
sg11
F0.0
sg12
L0L
sg13
F0.0
sg14
L0L
sg15
F0.0
sg16
F0.00025386764460730586
sg17
L0L
sg18
F0.024999999999999998
sg19
F0.06323575266888337
sg20
F0.0
sg21
L175000L
sg22
F0.1796213261358972
sg23
F0.21278317006491743
sg24
F0.008457809489827774
sg25
F0.0
sg26
F0.0742206969620463
ssS'MEYER JEROME J'
p203
(dp204
g3
F0.0
sg4
L0L
sg5
F0.009402744324912683
sg6
I00
sg7
L-38346L
sg8
g29
sg10
F0.0
sg11
F0.0
sg12
L0L
sg13
F0.0
sg14
L0L
sg15
F0.0
sg16
F0.0
sg17
L38346L
sg18
F0.0
sg19
F0.0008970347602851445
sg20
F0.0
sg21
L0L
sg22
F0.1499748016029313
sg23
F0.0
sg24
F2.077060930394096e-05
sg25
F0.0
sg26
F0.0
ssS'LAY KENNETH L'
p205
(dp206
g3
F0.28206482276057826
sg4
L202911L
sg5
F0.4363992428845574
sg6
I01
sg7
L-300000L
sg8
S'kenneth.lay@enron.com'
p207
sg10
F0.23295454545454547
sg11
F0.13244344747573833
sg12
L0L
sg13
F0.4366962506792248
sg14
L81525000L
sg15
F0.002505567928730512
sg16
F1.0
sg17
L0L
sg18
F0.875
sg19
F1.0
sg20
F0.026272577996715927
sg21
L3600000L
sg22
F1.0
sg23
F0.9649613321118948
sg24
F1.0
sg25
F0.4444444444444444
sg26
F1.0
ssS'BUTTS ROBERT H'
p208
(dp209
g3
F0.0
sg4
L0L
sg5
F0.04113427433632187
sg6
I00
sg7
L-75000L
sg8
S'bob.butts@enron.com'
p210
sg10
F0.0
sg11
F0.0
sg12
L0L
sg13
F0.0
sg14
L0L
sg15
F0.0
sg16
F0.014542465348273106
sg17
L0L
sg18
F0.09375
sg19
F0.00939313980089299
sg20
F0.0
sg21
L175000L
sg22
F0.17402262926616463
sg23
F0.23533328893920225
sg24
F0.012278722882344889
sg25
F0.0
sg26
F0.0
ssS'OLSON CINDY K'
p211
(dp212
g3
F0.07815697405769358
sg4
L77716L
sg5
F0.278851912241053
sg6
I00
sg7
L0L
sg8
S'cindy.olson@enron.com'
p213
sg10
F0.03787878787878788
sg11
F0.07772067280046005
sg12
L0L
sg13
F0.15504437601883717
sg14
L0L
sg15
F0.003619153674832962
sg16
F9.38248481210271e-05
sg17
L0L
sg18
F0.09375
sg19
F0.053929421370975825
sg20
F0.02463054187192118
sg21
L100000L
sg22
F0.20581487562264686
sg23
F0.296131051474995
sg24
F0.012761294337465506
sg25
F0.28846153846153844
sg26
F0.047659709405834055
ssS'MCDONALD REBECCA'
p214
(dp215
g3
F0.059013796290184176
sg4
L0L
sg5
F0.0
sg6
I00
sg7
L0L
sg8
S'rebecca.mcdonald@enron.com'
p216
sg10
F0.10227272727272728
sg11
F0.2779166071683565
sg12
L0L
sg13
F0.13041115739902193
sg14
L0L
sg15
F0.0009047884187082405
sg16
F0.0
sg17
L0L
sg18
F0.0
sg19
F0.035306444289336096
sg20
F0.0016420361247947454
sg21
L0L
sg22
F0.20376122929481802
sg23
F0.0
sg24
F0.0
sg25
F0.07692307692307693
sg26
F0.022047645676722374
ssS'CUMBERLAND MICHAEL S'
p217
(dp218
g3
F0.0
sg4
L0L
sg5
F0.09767313770146396
sg6
I00
sg7
L0L
sg8
g29
sg10
F0.0
sg11
F0.0
sg12
L0L
sg13
F0.0
sg14
L0L
sg15
F0.0
sg16
F6.882419414639128e-05
sg17
L0L
sg18
F0.040625
sg19
F0.005127398039120627
sg20
F0.0
sg21
L275000L
sg22
F0.16194864686450403
sg23
F0.16638710362490078
sg24
F0.007801830967352358
sg25
F0.0
sg26
F0.0
ssS'GAHN ROBERT S'
p219
(dp220
g3
F0.0
sg4
L73122L
sg5
F0.21891652059117953
sg6
I00
sg7
L-1042L
sg8
g29
sg10
F0.0
sg11
F0.0
sg12
L0L
sg13
F0.0
sg14
L0L
sg15
F0.0
sg16
F0.007388899844773931
sg17
L0L
sg18
F0.06373374999999999
sg19
F0.007378824474529333
sg20
F0.0
sg21
L0L
sg22
F0.16352815333524048
sg23
F0.17278435790788457
sg24
F0.00869628041840524
sg25
F0.0
sg26
F0.002423316334183291
ssS'MCCLELLAN GEORGE'
p221
(dp222
g3
F0.11512311043633244
sg4
L0L
sg5
F1.0
sg6
I00
sg7
L-125000L
sg8
S'george.mcclellan@enron.com'
p223
sg10
F0.09848484848484848
sg11
F0.13718768299824324
sg12
L0L
sg13
F0.2660749864155044
sg14
L0L
sg15
F0.0034103563474387525
sg16
F0.0049795704115426186
sg17
L0L
sg18
F0.11249999999999999
sg19
F0.02018046444115597
sg20
F0.0
sg21
L0L
sg22
F0.17537450944893823
sg23
F0.23704036326397648
sg24
F0.012734314754762013
sg25
F0.0
sg26
F0.014753678076965716
ssS'HERMANN ROBERT J'
p224
(dp225
g3
F0.0
sg4
L0L
sg5
F0.21138470819144706
sg6
I00
sg7
L-280000L
sg8
S'robert.hermann@enron.com'
p226
sg10
F0.0
sg11
F0.0
sg12
L0L
sg13
F0.0
sg14
L0L
sg15
F0.0
sg16
F0.04019805923494717
sg17
L0L
sg18
F0.0875
sg19
F0.014489614726693287
sg20
F0.0
sg21
L150000L
sg22
F0.17765111782761256
sg23
F0.2363654524871812
sg24
F0.012528617163226658
sg25
F0.0
sg26
F0.005458772092451278
ssS'SCRIMSHAW MATTHEW'
p227
(dp228
g3
F0.0
sg4
L0L
sg5
F0.0
sg6
I00
sg7
L0L
sg8
S'matthew.scrimshaw@enron.com'
p229
sg10
F0.0
sg11
F0.0
sg12
L0L
sg13
F0.0
sg14
L0L
sg15
F0.0
sg16
F0.0
sg17
L0L
sg18
F0.0
sg19
F0.01634957896045078
sg20
F0.0
sg21
L0L
sg22
F0.1499748016029313
sg23
F0.0
sg24
F0.0
sg25
F0.0
sg26
F0.02211332562253875
ssS'GATHMANN WILLIAM D'
p230
(dp231
g3
F0.0
sg4
L0L
sg5
F0.0
sg6
I00
sg7
L0L
sg8
g29
sg10
F0.0
sg11
F0.0
sg12
L-72419L
sg13
F0.0
sg14
L0L
sg15
F0.0
sg16
F0.0
sg17
L0L
sg18
F0.0
sg19
F0.040473737213470654
sg20
F0.0
sg21
L0L
sg22
F0.16517750819638902
sg23
F0.0
sg24
F0.0
sg25
F0.0
sg26
F0.05105818078661284
ssS'HAEDICKE MARK E'
p232
(dp233
g3
F0.2646379298963628
sg4
L2157527L
sg5
F0.3329603126379703
sg6
I00
sg7
L-934484L
sg8
S'mark.haedicke@enron.com'
p234
sg10
F0.34090909090909094
sg11
F0.20658306045440317
sg12
L-329825L
sg13
F0.33454084404999096
sg14
L0L
sg15
F0.13509187082405344
sg16
F0.005056309870653952
sg17
L0L
sg18
F0.14375
sg19
F0.017235302371389805
sg20
F0.10016420361247948
sg21
L983346L
sg22
F0.1801581164866156
sg23
F0.3366679924913926
sg24
F0.037264124311256586
sg25
F0.03142709943328181
sg26
F0.017722813393491816
ssS'BOWEN JR RAYMOND M'
p235
(dp236
g3
F0.1226483596276982
sg4
L0L
sg5
F0.2881016597963832
sg6
I01
sg7
L-833L
sg8
S'raymond.bowen@enron.com'
p237
sg10
F0.26515151515151514
sg11
F0.3466894166685753
sg12
L0L
sg13
F0.288534685745336
sg14
L0L
sg15
F0.0018791759465478842
sg16
F0.0001564712744899022
sg17
L0L
sg18
F0.16874999999999998
sg19
F0.006024880370782777
sg20
F0.02463054187192118
sg21
L974293L
sg22
F0.16448892859824588
sg23
F0.25070775643459936
sg24
F0.025778238085122473
sg25
F0.5555555555555556
sg26
F0.0
ssS'GILLIS JOHN'
p238
(dp239
g3
F0.0
sg4
L0L
sg5
F0.0
sg6
I00
sg7
L0L
sg8
g29
sg10
F0.0
sg11
F0.0
sg12
L0L
sg13
F0.0
sg14
L0L
sg15
F0.0
sg16
F0.0
sg17
L0L
sg18
F0.0
sg19
F0.0026393284101973767
sg20
F0.0
sg21
L0L
sg22
F0.1543417943746306
sg23
F0.0
sg24
F0.0
sg25
F0.0
sg26
F0.00028539916171893266
ssS'FITZGERALD JAY L'
p240
(dp241
g3
F0.061786256518582085
sg4
L0L
sg5
F0.1043437968552607
sg6
I00
sg7
L0L
sg8
S'jay.fitzgerald@enron.com'
p242
sg10
F0.001893939393939394
sg11
F0.004915666484815422
sg12
L0L
sg13
F0.13095453722151784
sg14
L0L
sg15
F0.0011135857461024498
sg16
F0.02755033456956258
sg17
L0L
sg18
F0.04375
sg19
F0.033879708804365756
sg20
F0.013136288998357963
sg21
L556416L
sg22
F0.20506894318291224
sg23
F0.17921760743229745
sg24
F0.013662223137120406
sg25
F0.5
sg26
F0.0193447528710521
ssS'MORAN MICHAEL P'
p243
(dp244
g3
F0.04435936365436663
sg4
L0L
sg5
F0.0
sg6
I00
sg7
L0L
sg8
S'michael.moran@enron.com'
p245
sg10
F0.0
sg11
F0.0
sg12
L0L
sg13
F0.023003079152327476
sg14
L0L
sg15
F0.0013223830734966592
sg16
F0.0
sg17
L0L
sg18
F0.0
sg19
F0.005395961209477015
sg20
F0.0
sg21
L0L
sg22
F0.15928035773431862
sg23
F0.0
sg24
F0.0
sg25
F0.0
sg26
F0.0017333857685997687
ssS'REDMOND BRIAN L'
p246
(dp247
g3
F0.11030431051554558
sg4
L0L
sg5
F0.0642105585256357
sg6
I00
sg7
L0L
sg8
S'brian.redmond@enron.com'
p248
sg10
F0.38636363636363635
sg11
F0.5617097673707934
sg12
L0L
sg13
F0.19253758377105595
sg14
L0L
sg15
F0.015381403118040088
sg16
F0.0
sg17
L0L
sg18
F0.0
sg19
F0.16141899738274498
sg20
F0.08045977011494253
sg21
L0L
sg22
F0.17193040221156242
sg23
F0.08714447949981012
sg24
F0.001076952712719308
sg25
F0.22171945701357465
sg26
F0.218614040183084
ssS'BAZELIDES PHILIP J'
p249
(dp250
g3
F0.0
sg4
L684694L
sg5
F0.0
sg6
I00
sg7
L0L
sg8
g29
sg10
F0.0
sg11
F0.0
sg12
L0L
sg13
F0.0
sg14
L0L
sg15
F0.0
sg16
F8.436514121170544e-05
sg17
L0L
sg18
F0.0
sg19
F0.033440376809528535
sg20
F0.0
sg21
L93750L
sg22
F0.1499748016029313
sg23
F0.0727265855453909
sg24
F0.008305694469667392
sg25
F0.0
sg26
F0.04657107012661789
ssS'BELDEN TIMOTHY N'
p251
(dp252
g3
F0.5274935639316126
sg4
L2144013L
sg5
F0.07586454103154794
sg6
I01
sg7
L-2334434L
sg8
S'tim.belden@enron.com'
p253
sg10
F0.4318181818181818
sg11
F0.1312780069067062
sg12
L0L
sg13
F1.0
sg14
L0L
sg15
F0.03368596881959911
sg16
F0.020338176799798525
sg17
L0L
sg18
F0.656249875
sg19
F0.02349338777374559
sg20
F0.17733990147783252
sg21
L0L
sg22
F0.15904812479241265
sg23
F0.1925736417645587
sg24
F0.05312515446993989
sg25
F0.2231404958677686
sg26
F0.027749078384590085
ssS'DURAN WILLIAM D'
p254
(dp255
g3
F0.05967390586837415
sg4
L0L
sg5
F0.11271490581956
sg6
I00
sg7
L0L
sg8
S'w.duran@enron.com'
p256
sg10
F0.20075757575757577
sg11
F0.5395052720768218
sg12
L0L
sg13
F0.10849483789168629
sg14
L0L
sg15
F0.0008351893095768373
sg16
F0.0001513553105491466
sg17
L0L
sg18
F0.09375
sg19
F0.03427995968032906
sg20
F0.0049261083743842365
sg21
L1105218L
sg22
F0.16086038245362366
sg23
F0.18959773517940928
sg24
F0.020213085980193102
sg25
F0.25
sg26
F0.04226891722184077
ssS'THORN TERENCE H'
p257
(dp258
g3
F0.017558914779853458
sg4
L16586L
sg5
F0.20171531235383347
sg6
I00
sg7
L0L
sg8
S'terence.thorn@enron.com'
p259
sg10
F0.0
sg11
F0.0
sg12
L0L
sg13
F0.013222242347400832
sg14
L0L
sg15
F0.002853563474387528
sg16
F0.04118148264303052
sg17
L0L
sg18
F0.0
sg19
F0.09891101611702495
sg20
F0.0
sg21
L200000L
sg22
F0.17101108683404484
sg23
F0.1998572788677337
sg24
F0.00880122462199205
sg25
F0.0
sg26
F0.12962694256591517
ssS'FASTOW ANDREW S'
p260
(dp261
g3
F0.0
sg4
L0L
sg5
F0.24444949576636085
sg6
I01
sg7
L-1386055L
sg8
S'andrew.fastow@enron.com'
p262
sg10
F0.0
sg11
F0.0
sg12
L0L
sg13
F0.0
sg14
L0L
sg15
F0.0
sg16
F0.02678293997844924
sg17
L0L
sg18
F0.1625
sg19
F0.03740282793091964
sg20
F0.0
sg21
L1736055L
sg22
F0.2533027405444973
sg23
F0.3965757726828513
sg24
F0.023407568997361745
sg25
F0.0
sg26
F0.0
ssS'FOY JOE'
p263
(dp264
g3
F0.0037626245956828837
sg4
L181755L
sg5
F0.0
sg6
I00
sg7
L0L
sg8
S'tracy.foy@enron.com'
p265
sg10
F0.0
sg11
F0.0
sg12
L0L
sg13
F0.0003622532149972831
sg14
L0L
sg15
F0.0009047884187082405
sg16
F0.0
sg17
L0L
sg18
F0.0
sg19
F0.007883908773479265
sg20
F0.0
sg21
L0L
sg22
F0.1499748016029313
sg23
F0.0
sg24
F0.0017550730330254715
sg25
F0.0
sg26
F0.009998548985594198
ssS'CALGER CHRISTOPHER F'
p266
(dp267
g3
F0.17149646841375668
sg4
L0L
sg5
F0.15657252265445026
sg6
I01
sg7
L-262500L
sg8
S'christopher.calger@enron.com'
p268
sg10
F0.3768939393939394
sg11
F0.35242944654644326
sg12
L0L
sg13
F0.3963050172070277
sg14
L0L
sg15
F0.010022271714922048
sg16
F4.691242406051355e-05
sg17
L0L
sg18
F0.15625
sg19
F0.00346094739345721
sg20
F0.041050903119868636
sg21
L375304L
sg22
F0.15723183630900145
sg23
F0.21614152609025086
sg24
F0.015829473510052303
sg25
F0.1736111111111111
sg26
F0.0
ssS'RICE KENNETH D'
p269
(dp270
g3
F0.05973991682619315
sg4
L0L
sg5
F0.20523423805423083
sg6
I01
sg7
L-3504386L
sg8
S'ken.rice@enron.com'
p271
sg10
F0.07954545454545454
sg11
F0.21353003408957333
sg12
L0L
sg13
F0.1564933888788263
sg14
L0L
sg15
F0.001252783964365256
sg16
F0.016876792819580513
sg17
L0L
sg18
F0.21875
sg19
F0.45950590846095235
sg20
F0.006568144499178982
sg21
L1617011L
sg22
F0.30823432482346147
sg23
F0.3785223593440947
sg24
F0.004876892714530628
sg25
F0.2222222222222222
sg26
F0.5762767471098494
ssS'KAMINSKI WINCENTY J'
p272
(dp273
g3
F0.3041124826721236
sg4
L0L
sg5
F0.36537814244436384
sg6
I00
sg7
L0L
sg8
S'vince.kaminski@enron.com'
p274
sg10
F0.07765151515151515
sg11
F0.0409471710486817
sg12
L0L
sg13
F0.10559681217170802
sg14
L0L
sg15
F1.0
sg16
F0.00045068746489411064
sg17
L0L
sg18
F0.049999999999999996
sg19
F0.020753681310178136
sg20
F0.28078817733990147
sg21
L323466L
sg22
F0.15723183630900145
sg23
F0.24755817280955458
sg24
F0.010494623140082947
sg25
F0.011901447661469933
sg26
F0.024746724620290723
ssS'LOCKHART EUGENE E'
p275
(dp276
g3
F0.0
sg4
L0L
sg5
F0.0
sg6
I00
sg7
L0L
sg8
g29
sg10
F0.0
sg11
F0.0
sg12
L0L
sg13
F0.0
sg14
L0L
sg15
F0.0
sg16
F0.0
sg17
L0L
sg18
F0.0
sg19
F0.0008970347602851445
sg20
F0.0
sg21
L0L
sg22
F0.1499748016029313
sg23
F0.0
sg24
F0.0
sg25
F0.0
sg26
F0.0
ssS'COX DAVID'
p277
(dp278
g3
F0.006733117697537792
sg4
L0L
sg5
F0.12178979992393876
sg6
I00
sg7
L-41250L
sg8
S'chip.cox@enron.com'
p279
sg10
F0.0
sg11
F0.0
sg12
L0L
sg13
F0.01285998913240355
sg14
L0L
sg15
F0.002296770601336303
sg16
F4.768464503270307e-05
sg17
L0L
sg18
F0.09999999999999999
sg19
F0.010980268592059056
sg20
F0.006568144499178982
sg21
L0L
sg22
F0.17174596330431602
sg23
F0.28282181095659154
sg24
F0.010635334120453485
sg25
F0.12121212121212122
sg26
F0.0034223152972786145
ssS'OVERDYKE JR JERE C'
p280
(dp281
g3
F0.0
sg4
L0L
sg5
F0.08232974738047674
sg6
I00
sg7
L0L
sg8
S'jere.overdyke@enron.com'
p282
sg10
F0.0
sg11
F0.0
sg12
L0L
sg13
F0.0
sg14
L0L
sg15
F0.0
sg16
F1.6988861388169517e-05
sg17
L0L
sg18
F0.0
sg19
F0.14956384881356252
sg20
F0.0
sg21
L135836L
sg22
F0.26750298165676467
sg23
F0.08543560541296441
sg24
F0.00241200752496676
sg25
F0.0
sg26
F0.15332826138196196
ssS'PEREIRA PAULO V. FERRAZ'
p283
(dp284
g3
F0.0
sg4
L0L
sg5
F0.12214387816211539
sg6
I00
sg7
L-101250L
sg8
g29
sg10
F0.0
sg11
F0.0
sg12
L0L
sg13
F0.0
sg14
L0L
sg15
F0.0
sg16
F0.0
sg17
L101250L
sg18
F0.0
sg19
F0.0008970347602851445
sg20
F0.0
sg21
L0L
sg22
F0.1499748016029313
sg23
F0.0
sg24
F0.0002698151395493809
sg25
F0.0
sg26
F0.0
ssS'STABLER FRANK'
p285
(dp286
g3
F0.0
sg4
L0L
sg5
F0.07218824722529431
sg6
I00
sg7
L0L
sg8
S'frank.stabler@enron.com'
p287
sg10
F0.0
sg11
F0.0
sg12
L0L
sg13
F0.0
sg14
L0L
sg15
F0.0
sg16
F0.03437068672356198
sg17
L0L
sg18
F0.0625
sg19
F0.011307829807566077
sg20
F0.0
sg21
L0L
sg22
F0.1794420697143368
sg23
F0.21552330781870635
sg24
F0.010738598135282097
sg25
F0.0
sg26
F0.0
ssS'SKILLING JEFFREY K'
p288
(dp289
g3
F0.23942174400950558
sg4
L0L
sg5
F0.1282375209277724
sg6
I01
sg7
L0L
sg8
S'jeff.skilling@enron.com'
p290
sg10
F0.16666666666666669
sg11
F0.11163320017129215
sg12
L0L
sg13
F0.36986053251222606
sg14
L0L
sg15
F0.007516703786191537
sg16
F0.0021353840433470796
sg17
L0L
sg18
F0.7
sg19
F0.5317507033126446
sg20
F0.04926108374384236
sg21
L1920000L
sg22
F0.5440551591529837
sg23
F1.0
sg24
F0.08384253915996143
sg25
F0.2777777777777778
sg26
F0.5604339348249978
ssS'BLAKE JR. NORMAN P'
p291
(dp292
g3
F0.0
sg4
L0L
sg5
F0.005590939094171698
sg6
I00
sg7
L-113784L
sg8
g29
sg10
F0.0
sg11
F0.0
sg12
L0L
sg13
F0.0
sg14
L0L
sg15
F0.0
sg16
F0.0
sg17
L113784L
sg18
F0.0
sg19
F0.0008970347602851445
sg20
F0.0
sg21
L0L
sg22
F0.1499748016029313
sg23
F0.0
sg24
F1.2350352998484652e-05
sg25
F0.0
sg26
F0.0
ssS'SHERRICK JEFFREY B'
p293
(dp294
g3
F0.040464717143045746
sg4
L0L
sg5
F0.0
sg6
I00
sg7
L0L
sg8
S'jeffrey.sherrick@enron.com'
p295
sg10
F0.07386363636363637
sg11
F0.29272673631599044
sg12
L0L
sg13
F0.10559681217170802
sg14
L0L
sg15
F0.0017399777282850778
sg16
F0.0
sg17
L0L
sg18
F0.0
sg19
F0.038177045036523964
sg20
F0.029556650246305417
sg21
L0L
sg22
F0.17335351278093103
sg23
F0.0
sg24
F0.0
sg25
F0.72
sg26
F0.04152943556238337
ssS'PRENTICE JAMES'
p296
(dp297
g3
F0.0
sg4
L564348L
sg5
F0.0
sg6
I00
sg7
L0L
sg8
S'james.prentice@enron.com'
p298
sg10
F0.0
sg11
F0.0
sg12
L0L
sg13
F0.0
sg14
L0L
sg15
F0.0
sg16
F0.0
sg17
L0L
sg18
F0.0
sg19
F0.023174696609164665
sg20
F0.0
sg21
L0L
sg22
F0.16199868664296083
sg23
F0.0
sg24
F0.005449489455816119
sg25
F0.0
sg26
F0.025801242934747674
ssS'GRAY RODNEY'
p299
(dp300
g3
F0.0
sg4
L93585L
sg5
F0.0
sg6
I00
sg7
L0L
sg8
g29
sg10
F0.0
sg11
F0.0
sg12
L0L
sg13
F0.0
sg14
L0L
sg15
F0.0
sg16
F0.06571919014483872
sg17
L0L
sg18
F0.0
sg19
F0.0008970347602851445
sg20
F0.0
sg21
L365625L
sg22
F0.1499748016029313
sg23
F0.005952713051334614
sg24
F0.011072424604015961
sg25
F0.0
sg26
F0.0
ssS'PICKERING MARK R'
p301
(dp302
g3
F0.05927784012146017
sg4
L0L
sg5
F0.13836590707413352
sg6
I00
sg7
L0L
sg8
S'mark.pickering@enron.com'
p303
sg10
F0.013257575757575758
sg11
F0.03586575368431029
sg12
L0L
sg13
F0.13186017025901103
sg14
L400000L
sg15
F0.0046631403118040085
sg16
F0.0
sg17
L0L
sg18
F0.0375
sg19
F0.0014829056927844436
sg20
F0.0
sg21
L0L
sg22
F0.1499748016029313
sg23
F0.5894553739995573
sg24
F0.013390235339694044
sg25
F0.0
sg26
F0.0008384091664981968
ssS'THE TRAVEL AGENCY IN THE PARK'
p304
(dp305
g3
F0.0
sg4
L0L
sg5
F0.0
sg6
I00
sg7
L0L
sg8
g29
sg10
F0.0
sg11
F0.0
sg12
L0L
sg13
F0.0
sg14
L0L
sg15
F0.0
sg16
F0.03495226564324221
sg17
L0L
sg18
F0.0
sg19
F0.0008970347602851445
sg20
F0.0
sg21
L0L
sg22
F0.1499748016029313
sg23
F0.0
sg24
F0.0034964921183262697
sg25
F0.0
sg26
F0.0
ssS'NOLES JAMES L'
p306
(dp307
g3
F0.0
sg4
L774401L
sg5
F0.0
sg6
I00
sg7
L0L
sg8
g29
sg10
F0.0
sg11
F0.0
sg12
L-94556L
sg13
F0.0
sg14
L0L
sg15
F0.0
sg16
F0.0
sg17
L0L
sg18
F0.0
sg19
F0.008398025876583292
sg20
F0.0
sg21
L0L
sg22
F0.1766508405070452
sg23
F0.0
sg24
F0.007477815255965217
sg25
F0.0
sg26
F0.0
ssS'KEAN STEVEN J'
p308
(dp309
g3
F0.8419037560235
sg4
L0L
sg5
F0.1833906706941245
sg6
I00
sg7
L0L
sg8
S'steven.kean@enron.com'
p310
sg10
F0.26515151515151514
sg11
F0.050505640283065145
sg12
L0L
sg13
F0.6591197246875566
sg14
L0L
sg15
F0.47042037861915365
sg16
F0.00011882550209566293
sg17
L0L
sg18
F0.125
sg19
F0.1260876721936781
sg20
F0.6354679802955665
sg21
L300000L
sg22
F0.3878850989946899
sg23
F0.3638560982238148
sg24
F0.016874521948880294
sg25
F0.05725699067909454
sg26
F0.05886879569065025
ssS'FOWLER PEGGY'
p311
(dp312
g3
F0.03412766519242194
sg4
L0L
sg5
F0.0
sg6
I00
sg7
L0L
sg8
S'kulvinder.fowler@enron.com'
p313
sg10
F0.0
sg11
F0.0
sg12
L0L
sg13
F0.0018112660749864155
sg14
L0L
sg15
F0.002505567928730512
sg16
F0.0
sg17
L0L
sg18
F0.0
sg19
F0.0392406373815154
sg20
F0.0
sg21
L0L
sg22
F0.18223116834417968
sg23
F0.0
sg24
F0.0
sg25
F0.0
sg26
F0.03856303691026629
ssS'WASAFF GEORGE'
p314
(dp315
g3
F0.02640438312759918
sg4
L831299L
sg5
F0.0
sg6
I00
sg7
L-583325L
sg8
S'george.wasaff@enron.com'
p316
sg10
F0.04166666666666667
sg11
F0.2530585106382979
sg12
L0L
sg13
F0.061039666727042204
sg14
L0L
sg15
F0.0020879732739420933
sg16
F0.00013755186067125887
sg17
L0L
sg18
F0.040625
sg19
F0.04273330131027945
sg20
F0.011494252873563218
sg21
L200000L
sg22
F0.1723266896170166
sg23
F0.23396546976489707
sg24
F0.009988384198489079
sg25
F0.23333333333333334
sg26
F0.0485688060317481
ssS'WHITE JR THOMAS E'
p317
(dp318
g3
F0.0
sg4
L0L
sg5
F0.35562131988127454
sg6
I00
sg7
L0L
sg8
S'thomas.white@enron.com'
p319
sg10
F0.0
sg11
F0.0
sg12
L0L
sg13
F0.0
sg14
L0L
sg15
F0.0
sg16
F0.10477716164196958
sg17
L0L
sg18
F0.056249999999999994
sg19
F0.3089913976984781
sg20
F0.0
sg21
L0L
sg22
F0.9473332771321552
sg23
F0.2857509237278832
sg24
F0.01867866808115385
sg25
F0.0
sg26
F0.0377615727132898
ssS'CHRISTODOULOU DIOMEDES'
p320
(dp321
g3
F0.0
sg4
L0L
sg5
F0.0
sg6
I00
sg7
L0L
sg8
S'diomedes.christodoulou@enron.com'
p322
sg10
F0.0
sg11
F0.0
sg12
L0L
sg13
F0.0
sg14
L0L
sg15
F0.0
sg16
F0.0
sg17
L0L
sg18
F0.0
sg19
F0.12454646015696207
sg20
F0.0
sg21
L0L
sg22
F0.20472085289433764
sg23
F0.0
sg24
F0.0
sg25
F0.0
sg26
F0.1492691766809175
ssS'ALLEN PHILLIP K'
p323
(dp324
g3
F0.19156379959073208
sg4
L2869717L
sg5
F0.06062169144485778
sg6
I00
sg7
L-3081055L
sg8
S'phillip.allen@enron.com'
p325
sg10
F0.08901515151515152
sg11
F0.07451757408683668
sg12
L-126027L
sg13
F0.2548451367505887
sg14
L0L
sg15
F0.15277004454342985
sg16
F1.4672198471600946e-05
sg17
L0L
sg18
F0.521875
sg19
F0.03608308234920695
sg20
F0.10673234811165845
sg21
L304805L
sg22
F0.15723183630900145
sg23
F0.18173547457026182
sg24
F0.04330292548962511
sg25
F0.029612756264236904
sg26
F0.05035290743226814
ssS'SHARP VICTORIA T'
p326
(dp327
g3
F0.2070103637203776
sg4
L187469L
sg5
F0.5085481480833877
sg6
I00
sg7
L0L
sg8
S'vicki.sharp@enron.com'
p328
sg10
F0.045454545454545456
sg11
F0.0352122231871472
sg12
L0L
sg13
F0.4486506067741351
sg14
L0L
sg15
F0.009465478841870824
sg16
F0.00023176281927838073
sg17
L0L
sg18
F0.075
sg19
F0.010949813394269228
sg20
F0.009852216748768473
sg21
L422158L
sg22
F0.16224364546638456
sg23
F0.2233018794915312
sg24
F0.015223195743544988
sg25
F0.04411764705882353
sg26
F0.008183005057821643
ssS'JAEDICKE ROBERT'
p329
(dp330
g3
F0.0
sg4
L0L
sg5
F0.0
sg6
I00
sg7
L-25000L
sg8
g29
sg10
F0.0
sg11
F0.0
sg12
L-44093L
sg13
F0.0
sg14
L0L
sg15
F0.0
sg16
F0.0
sg17
L108750L
sg18
F0.0
sg19
F0.009680623034004581
sg20
F0.0
sg21
L0L
sg22
F0.15251381650683882
sg23
F0.0
sg24
F0.0008087115430985846
sg25
F0.0
sg26
F0.012569732538217809
ssS'WINOKUR JR. HERBERT S'
p331
(dp332
g3
F0.0
sg4
L0L
sg5
F0.006176698154858959
sg6
I00
sg7
L-25000L
sg8
g29
sg10
F0.0
sg11
F0.0
sg12
L0L
sg13
F0.0
sg14
L0L
sg15
F0.0
sg16
F0.0
sg17
L108579L
sg18
F0.0
sg19
F0.0008970347602851445
sg20
F0.0
sg21
L0L
sg22
F0.1499748016029313
sg23
F0.0
sg24
F0.0008207046145795212
sg25
F0.0
sg26
F0.0
ssS'BROWN MICHAEL'
p333
(dp334
g3
F0.09809228331903097
sg4
L0L
sg5
F0.2154544222623414
sg6
I00
sg7
L0L
sg8
S'michael.brown@enron.com'
p335
sg10
F0.02462121212121212
sg11
F0.0402515678245182
sg12
L0L
sg13
F0.1378373483064662
sg14
L0L
sg15
F0.002853563474387528
sg16
F0.0
sg17
L0L
sg18
F0.0
sg19
F0.0008970347602851445
sg20
F0.0016420361247947454
sg21
L0L
sg22
F0.1499748016029313
sg23
F0.0
sg24
F0.0004759376064029019
sg25
F0.024390243902439025
sg26
F0.0
ssS'BADUM JAMES P'
p336
(dp337
g3
F0.0
sg4
L178980L
sg5
F0.015238478250416371
sg6
I00
sg7
L0L
sg8
g29
sg10
F0.0
sg11
F0.0
sg12
L0L
sg13
F0.0
sg14
L0L
sg15
F0.0
sg16
F0.0
sg17
L0L
sg18
F0.0
sg19
F0.006142103383251037
sg20
F0.0
sg21
L0L
sg22
F0.1499748016029313
sg23
F0.0
sg24
F0.0017619386319167323
sg25
F0.0
sg26
F0.007505942637650726
ssS'HUGHES JAMES A'
p338
(dp339
g3
F0.04746187867185953
sg4
L0L
sg5
F0.0
sg6
I00
sg7
L0L
sg8
S'james.hughes@enron.com'
p340
sg10
F0.06628787878787878
sg11
F0.2239738999201018
sg12
L0L
sg13
F0.10668357181669987
sg14
L0L
sg15
F0.002366369710467706
sg16
F0.0
sg17
L0L
sg18
F0.0
sg19
F0.023649813970008773
sg20
F0.008210180623973728
sg21
L0L
sg22
F0.1709021394682908
sg23
F0.0
sg24
F0.0
sg25
F0.14705882352941177
sg26
F0.02197966576826438
ssS'REYNOLDS LAWRENCE'
p341
(dp342
g3
F0.0
sg4
L51365L
sg5
F0.036758566726262557
sg6
I00
sg7
L-200000L
sg8
g29
sg10
F0.0
sg11
F0.0
sg12
L-140264L
sg13
F0.0
sg14
L0L
sg15
F0.0
sg16
F0.019503598984104698
sg17
L0L
sg18
F0.012499999999999999
sg19
F0.0867878333254771
sg20
F0.0
sg21
L156250L
sg22
F0.1615768323081225
sg23
F0.06875001124851295
sg24
F0.0038091520712097214
sg25
F0.0
sg26
F0.12113152106369837
ssS'DIMICHELE RICHARD G'
p343
(dp344
g3
F0.0
sg4
L0L
sg5
F0.15654629463680753
sg6
I00
sg7
L0L
sg8
S'richard.dimichele@enron.com'
p345
sg10
F0.0
sg11
F0.0
sg12
L0L
sg13
F0.0
sg14
L0L
sg15
F0.0
sg16
F0.036167837981090044
sg17
L0L
sg18
F0.125
sg19
F0.17011526854964149
sg20
F0.0
sg21
L694862L
sg22
F0.15723183630900145
sg23
F0.23647793761664707
sg24
F0.022867475217915895
sg25
F0.0
sg26
F0.23849025910505717
ssS'BHATNAGAR SANJAY'
p346
(dp347
g3
F0.03452373093933593
sg4
L0L
sg5
F0.0
sg6
I00
sg7
L0L
sg8
S'sanjay.bhatnagar@enron.com'
p348
sg10
F0.0
sg11
F0.0
sg12
L15456290L
sg13
F0.08386161927187104
sg14
L0L
sg15
F0.00201837416481069
sg16
F0.013307684013742058
sg17
L137864L
sg18
F0.0
sg19
F0.0008970347602851445
sg20
F0.0016420361247947454
sg21
L0L
sg22
F0.0
sg23
F0.0
sg24
F0.14924991207736385
sg25
F0.034482758620689655
sg26
F0.07582569241103163
ssS'CARTER REBECCA C'
p349
(dp350
g3
F0.02059541883952736
sg4
L0L
sg5
F0.0
sg6
I00
sg7
L-159792L
sg8
S'rebecca.carter@enron.com'
p351
sg10
F0.054924242424242424
sg11
F0.42766298417894166
sg12
L-307301L
sg13
F0.035500815069733745
sg14
L0L
sg15
F0.0010439866369710467
sg16
F5.2124915622792834e-05
sg17
L0L
sg18
F0.0375
sg19
F0.0008970347602851445
sg20
F0.011494252873563218
sg21
L75000L
sg22
F0.1676701686449942
sg23
F0.23559695408267026
sg24
F0.0046114132344779795
sg25
F0.4666666666666667
sg26
F0.0
ssS'BUCHANAN HAROLD G'
p352
(dp353
g3
F0.07181992210706978
sg4
L0L
sg5
F0.0026228017642713204
sg6
I00
sg7
L0L
sg8
S'john.buchanan@enron.com'
p354
sg10
F0.0
sg11
F0.0
sg12
L0L
sg13
F0.004165911972468755
sg14
L0L
sg15
F0.00869988864142539
sg16
F0.00011728106015128387
sg17
L0L
sg18
F0.0625
sg19
F0.021536280207024548
sg20
F0.0
sg21
L304805L
sg22
F0.16086038245362366
sg23
F0.22318579483792242
sg24
F0.010183846157359545
sg25
F0.0
sg26
F0.024032105848123743
ssS'YEAP SOON'
p355
(dp356
g3
F0.0
sg4
L0L
sg5
F0.24084751467676155
sg6
I00
sg7
L0L
sg8
g29
sg10
F0.0
sg11
F0.0
sg12
L0L
sg13
F0.0
sg14
L0L
sg15
F0.0
sg16
F0.0
sg17
L0L
sg18
F0.0
sg19
F0.004818533100680307
sg20
F0.0
sg21
L0L
sg22
F0.1499748016029313
sg23
F0.0
sg24
F0.0005320308046579429
sg25
F0.0
sg26
F0.005611850618649192
ssS'MURRAY JULIA H'
p357
(dp358
g3
F0.14469601953924352
sg4
L0L
sg5
F0.25170154264457106
sg6
I00
sg7
L0L
sg8
S'julia.murray@enron.com'
p359
sg10
F0.020833333333333336
sg11
F0.023089280167727908
sg12
L0L
sg13
F0.0715450099619634
sg14
L0L
sg15
F0.00313195991091314
sg16
F3.1854115102817845e-05
sg17
L0L
sg18
F0.049999999999999996
sg19
F0.013051873054679329
sg20
F0.003284072249589491
sg21
L125000L
sg22
F0.16131770802382378
sg23
F0.20632832339564708
sg24
F0.007842754185497455
sg25
F0.044444444444444446
sg26
F0.011659296693550415
ssS'GARLAND C KEVIN'
p360
(dp361
g3
F0.013796290184170572
sg4
L0L
sg5
F0.21159453233258876
sg6
I00
sg7
L0L
sg8
S'kevin.garland@enron.com'
p362
sg10
F0.01893939393939394
sg11
F0.22014659472666193
sg12
L0L
sg13
F0.0322405361347582
sg14
L0L
sg15
F0.003062360801781737
sg16
F0.00587023077534171
sg17
L0L
sg18
F0.10625
sg19
F0.01912850895196666
sg20
F0.04433497536945813
sg21
L375304L
sg22
F0.16494107168276
sg23
F0.20872380671275256
sg24
F0.015126227608431004
sg25
F0.6136363636363636
sg26
F0.01852331684658003
ssS'DODSON KEITH'
p363
(dp364
g3
F0.011617928576143641
sg4
L0L
sg5
F0.12311431481489578
sg6
I00
sg7
L0L
sg8
S'keith.dodson@enron.com'
p365
sg10
F0.01893939393939394
sg11
F0.26142408123791105
sg12
L0L
sg13
F0.020648433254845135
sg14
L0L
sg15
F0.0009743875278396436
sg16
F7.47123790593364e-05
sg17
L0L
sg18
F0.008749999999999999
sg19
F0.0008970347602851445
sg20
F0.0049261083743842365
sg21
L0L
sg22
F0.1499748016029313
sg23
F0.19887640853879116
sg24
F0.0030894325947522895
sg25
F0.21428571428571427
sg26
F0.0
ssS'YEAGER F SCOTT'
p366
(dp367
g3
F0.0
sg4
L0L
sg5
F0.2358204779619082
sg6
I01
sg7
L0L
sg8
S'scott.yeager@enron.com'
p368
sg10
F0.0
sg11
F0.0
sg12
L0L
sg13
F0.0
sg14
L0L
sg15
F0.0
sg16
F0.014281261604429999
sg17
L0L
sg18
F0.0
sg19
F0.2426823758252377
sg20
F0.0
sg21
L0L
sg22
F0.3559040949928896
sg23
F0.14254385570227615
sg24
F0.0034791494803393433
sg25
F0.0
sg26
F0.24189062286016133
ssS'HIRKO JOSEPH'
p369
(dp370
g3
F0.0
sg4
L10259L
sg5
F0.34086805995724834
sg6
I01
sg7
L0L
sg8
S'joe.hirko@enron.com'
p371
sg10
F0.0
sg11
F0.0
sg12
L0L
sg13
F0.0
sg14
L0L
sg15
F0.0
sg16
F0.00027568288707165986
sg17
L0L
sg18
F0.0
sg19
F0.6268065633738387
sg20
F0.0
sg21
L0L
sg22
F0.1499748016029313
sg23
F0.0
sg24
F0.0008796174399460223
sg25
F0.0
sg26
F0.8957063016414396
ssS'DIETRICH JANET R'
p372
(dp373
g3
F0.16978018351046276
sg4
L0L
sg5
F0.01519039355140473
sg6
I00
sg7
L0L
sg8
S'janet.dietrich@enron.com'
p374
sg10
F0.5776515151515151
sg11
F0.5456160451341783
sg12
L0L
sg13
F0.34450280746241624
sg14
L0L
sg15
F0.004384743875278397
sg16
F4.565756498070558e-05
sg17
L0L
sg18
F0.075
sg19
F0.0388406509795476
sg20
F0.022988505747126436
sg21
L556416L
sg22
F0.1681174171596938
sg23
F0.22506024703534191
sg24
F0.013619803199104502
sg25
F0.2222222222222222
sg26
F0.04512640245316927
ssS'DERRICK JR. JAMES V'
p375
(dp376
g3
F0.14396989900323454
sg4
L0L
sg5
F0.22348019566101163
sg6
I00
sg7
L-1284000L
sg8
S'james.derrick@enron.com'
p377
sg10
F0.12121212121212122
sg11
F0.1350151696957281
sg12
L-1787380L
sg13
F0.2537583771055968
sg14
L0L
sg15
F0.06326559020044543
sg16
F0.0007222196642402519
sg17
L0L
sg18
F0.09999999999999999
sg19
F0.18057482853286244
sg20
F0.03284072249589491
sg21
L484000L
sg22
F0.2528978156628998
sg23
F0.44307892496611945
sg24
F0.00532041426540897
sg25
F0.022002200220022004
sg26
F0.2571274677725741
ssS'FREVERT MARK A'
p378
(dp379
g3
F0.21618588685721832
sg4
L6426990L
sg5
F0.38024942844778226
sg6
I00
sg7
L-3367011L
sg8
S'mark.frevert@enron.com'
p380
sg10
F0.45833333333333337
sg11
F0.33998700665908727
sg12
L0L
sg13
F0.5395761637384532
sg14
L2000000L
sg15
F0.0014615812917594653
sg16
F0.7169705887094151
sg17
L0L
sg18
F0.25
sg19
F0.29837301090888096
sg20
F0.009852216748768473
sg21
L1617011L
sg22
F0.3911715435008635
sg23
F0.9547125869959991
sg24
F0.16659486756602535
sg25
F0.2857142857142857
sg26
F0.3037557167172697
ssS'PAI LOU L'
p381
(dp382
g3
F0.0
sg4
L0L
sg5
F0.140088213566005
sg6
I00
sg7
L0L
sg8
S'lou.pai@enron.com'
p383
sg10
F0.0
sg11
F0.0
sg12
L0L
sg13
F0.0
sg14
L0L
sg15
F0.0
sg16
F0.17659313288986614
sg17
L0L
sg18
F0.125
sg19
F0.48545265873774984
sg20
F0.0
sg21
L0L
sg22
F0.6367693098264996
sg23
F0.23565994575517116
sg24
F0.03016018967901954
sg25
F0.0
sg26
F0.4473039255645913
ssS'BAY FRANKLIN R'
p384
(dp385
g3
F0.0
sg4
L260455L
sg5
F0.5645231090692114
sg6
I00
sg7
L-201641L
sg8
S'frank.bay@enron.com'
p386
sg10
F0.0
sg11
F0.0
sg12
L-82782L
sg13
F0.0
sg14
L0L
sg15
F0.0
sg16
F6.66040588513464e-06
sg17
L0L
sg18
F0.049999999999999996
sg19
F0.0021790012489479277
sg20
F0.0
sg21
L0L
sg22
F0.1583701980815129
sg23
F0.21567538771374423
sg24
F0.007992445485092849
sg25
F0.0
sg26
F0.0
ssS'HAYSLETT RODERICK J'
p387
(dp388
g3
F0.1748630272625256
sg4
L0L
sg5
F0.0
sg6
I00
sg7
L0L
sg8
S'rod.hayslett@enron.com'
p389
sg10
F0.06628787878787878
sg11
F0.060791707830333414
sg12
L0L
sg13
F0.10342329288172432
sg14
L0L
sg15
F0.0738446547884187
sg16
F0.0
sg17
L0L
sg18
F0.0
sg19
F0.00794960004513147
sg20
F0.06239737274220033
sg21
L0L
sg22
F0.1699367575513423
sg23
F0.0
sg24
F0.0
sg25
F0.03581526861451461
sg26
F0.0
ssS'FUGH JOHN L'
p390
(dp391
g3
F0.0
sg4
L50591L
sg5
F0.0
sg6
I00
sg7
L0L
sg8
g29
sg10
F0.0
sg11
F0.0
sg12
L0L
sg13
F0.0
sg14
L0L
sg15
F0.0
sg16
F0.0
sg17
L0L
sg18
F0.0
sg19
F0.004485295866346724
sg20
F0.0
sg21
L0L
sg22
F0.1499748016029313
sg23
F0.0
sg24
F0.0004885197095749312
sg25
F0.0
sg26
F0.005134972288652648
ssS'FALLON JAMES B'
p392
(dp393
g3
F0.11584923097234141
sg4
L0L
sg5
F0.41931606072660355
sg6
I00
sg7
L0L
sg8
S'jim.fallon@enron.com'
p394
sg10
F0.07954545454545454
sg11
F0.11011092925986544
sg12
L0L
sg13
F0.29052707842782105
sg14
L0L
sg15
F0.005219933184855234
sg16
F0.03875400601695276
sg17
L0L
sg18
F0.3125
sg19
F0.048347718040041815
sg20
F0.06075533661740558
sg21
L374347L
sg22
F0.23013875702341977
sg23
F0.27409296491003887
sg24
F0.03549968470871702
sg25
F0.49333333333333335
sg26
F0.027374126247103794
ssS'KOENIG MARK E'
p395
(dp396
g3
F0.15671001386230116
sg4
L0L
sg5
F0.5552340194874171
sg6
I01
sg7
L0L
sg8
S'mark.koenig@enron.com'
p397
sg10
F0.10037878787878789
sg11
F0.10271962214773522
sg12
L0L
sg13
F0.411338525629415
sg14
L0L
sg15
F0.00424554565701559
sg16
F0.014523352879211415
sg17
L0L
sg18
F0.0875
sg19
F0.03995892840914762
sg20
F0.02463054187192118
sg21
L300000L
sg22
F0.22185691456453532
sg23
F0.27891452749946455
sg24
F0.0153285455099355
sg25
F0.2459016393442623
sg26
F0.01955658234169037
ssS'SAVAGE FRANK'
p398
(dp399
g3
F0.0
sg4
L0L
sg5
F0.0
sg6
I00
sg7
L-121284L
sg8
g29
sg10
F0.0
sg11
F0.0
sg12
L0L
sg13
F0.0
sg14
L0L
sg15
F0.0
sg16
F0.0
sg17
L125034L
sg18
F0.0
sg19
F0.0008970347602851445
sg20
F0.0
sg21
L0L
sg22
F0.1499748016029313
sg23
F0.0
sg24
F3.621096461635453e-05
sg25
F0.0
sg26
F0.0
ssS'IZZO LAWRENCE L'
p400
(dp401
g3
F0.03274143507822299
sg4
L0L
sg5
F0.12280394993945701
sg6
I00
sg7
L0L
sg8
S'larry.izzo@enron.com'
p402
sg10
F0.05303030303030303
sg11
F0.2597374742621826
sg12
L0L
sg13
F0.07915232747690636
sg14
L0L
sg15
F0.0013223830734966592
sg16
F0.149977764862382
sg17
L0L
sg18
F0.0
sg19
F0.11929960124848815
sg20
F0.008210180623973728
sg21
L312500L
sg22
F0.36043024765832266
sg23
F0.07673645544059075
sg24
F0.01911548818951386
sg25
F0.2631578947368421
sg26
F0.0630356292744369
ssS'TILNEY ELIZABETH A'
p403
(dp404
g3
F0.03036504059673906
sg4
L0L
sg5
F0.0
sg6
I00
sg7
L-575000L
sg8
S'elizabeth.tilney@enron.com'
p405
sg10
F0.01893939393939394
sg11
F0.10002312673450509
sg12
L0L
sg13
F0.06864698424198515
sg14
L0L
sg15
F0.0013223830734966592
sg16
F0.014677507490784749
sg17
L0L
sg18
F0.0375
sg19
F0.024659860502987633
sg20
F0.0180623973727422
sg21
L275000L
sg22
F0.1831883158672049
sg23
F0.22257477561466374
sg24
F0.0038566415442719162
sg25
F0.5789473684210527
sg26
F0.017213327998196363
ssS'MARTIN AMANDA K'
p406
(dp407
g3
F0.1004686778005149
sg4
L85430L
sg5
F0.03589304214405302
sg6
I00
sg7
L0L
sg8
S'a..martin@enron.com'
p408
sg10
F0.015151515151515152
sg11
F0.024184303967344202
sg12
L0L
sg13
F0.08639739177685202
sg14
L0L
sg15
F0.016007795100222717
sg16
F0.2720586609939314
sg17
L0L
sg18
F0.0
sg19
F0.043015657816708984
sg20
F0.0
sg21
L5145434L
sg22
F0.1499748016029313
sg23
F0.3144967235331489
sg24
F0.08118030904136704
sg25
F0.0
sg26
F0.06027375261671699
ssS'BUY RICHARD B'
p409
(dp410
g3
F0.2325566043963298
sg4
L649584L
sg5
F0.0
sg6
I00
sg7
L-694862L
sg8
S'rick.buy@enron.com'
p411
sg10
F0.29545454545454547
sg11
F0.20373714375441626
sg12
L0L
sg13
F0.4225683752943307
sg14
L0L
sg15
F0.07328786191536749
sg16
F0.038666262408987725
sg17
L0L
sg18
F0.11249999999999999
sg19
F0.07097186116718356
sg20
F0.11658456486042693
sg21
L769862L
sg22
F0.20189507378247287
sg23
F0.29745207683544234
sg24
F0.02274726447164683
sg25
F0.06742640075973409
sg26
F0.07403006208385232
ssS'GRAMM WENDY L'
p412
(dp413
g3
F0.0
sg4
L0L
sg5
F0.0
sg6
I00
sg7
L0L
sg8
g29
sg10
F0.0
sg11
F0.0
sg12
L0L
sg13
F0.0
sg14
L0L
sg15
F0.0
sg16
F0.0
sg17
L119292L
sg18
F0.0
sg19
F0.0008970347602851445
sg20
F0.0
sg21
L0L
sg22
F0.1499748016029313
sg23
F0.0
sg24
F0.0011519142376037773
sg25
F0.0
sg26
F0.0
ssS'CAUSEY RICHARD A'
p414
(dp415
g3
F0.12489273219354413
sg4
L0L
sg5
F0.13408636886209746
sg6
I01
sg7
L-235000L
sg8
S'richard.causey@enron.com'
p416
sg10
F0.10984848484848485
sg11
F0.14104741127254736
sg12
L0L
sg13
F0.28708567288534687
sg14
L0L
sg15
F0.0034103563474387525
sg16
F0.029720372029036667
sg17
L0L
sg18
F0.125
sg19
F0.05179938849950292
sg20
F0.019704433497536946
sg21
L350000L
sg22
F0.29405153141300355
sg23
F0.3736207073424893
sg24
F0.01804520795054119
sg25
F0.24489795918367346
sg26
F0.0
ssS'TAYLOR MITCHELL S'
p417
(dp418
g3
F0.03518384051752591
sg4
L227449L
sg5
F0.0
sg6
I00
sg7
L0L
sg8
S'mitchell.taylor@enron.com'
p419
sg10
F0.0
sg11
F0.0
sg12
L0L
sg13
F0.054337982249592465
sg14
L0L
sg15
F0.00201837416481069
sg16
F0.0
sg17
L0L
sg18
F0.075
sg19
F0.0770868661379723
sg20
F0.0
sg21
L0L
sg22
F0.18244008010049875
sg23
F0.23866104900932097
sg24
F0.01055103499482661
sg25
F0.0
sg26
F0.09261716650192335
ssS'DONAHUE JR JEFFREY M'
p420
(dp421
g3
F0.057099478513433236
sg4
L0L
sg5
F0.4208198004047858
sg6
I00
sg7
L-300000L
sg8
S'jeff.donahue@enron.com'
p422
sg10
F0.3560606060606061
sg11
F1.0
sg12
L0L
sg13
F0.13982974098895126
sg14
L0L
sg15
F0.0015311804008908685
sg16
F8.600611077760817e-05
sg17
L0L
sg18
F0.09999999999999999
sg19
F0.02288882056417959
sg20
F0.0180623973727422
sg21
L0L
sg22
F0.1681174171596938
sg23
F0.25070775643459936
sg24
F0.008456563832644972
sg25
F0.5
sg26
F0.022298574512268174
ssS'GLISAN JR BEN F'
p423
(dp424
g3
F0.05762756617598522
sg4
L0L
sg5
F0.550692201098954
sg6
I01
sg7
L0L
sg8
S'ben.glisan@enron.com'
p425
sg10
F0.09848484848484848
sg11
F0.2740610757719773
sg12
L0L
sg13
F0.1583046549538127
sg14
L0L
sg15
F0.0011135857461024498
sg16
F0.01933525481216738
sg17
L0L
sg18
F0.075
sg19
F0.016735894091266437
sg20
F0.009852216748768473
sg21
L71023L
sg22
F0.17265209213492153
sg23
F0.24744478779905296
sg24
F0.01228550157492107
sg25
F0.375
sg26
F0.011200759837784508
ss.